target datalayout = "e-m:e-p270:32:32-p271:32:32-p272:64:64-i64:64-i128:128-f80:128-n8:16:32:64-S128"
target triple = "x86_64-pc-linux-gnu"

%struct.If_Cut_t_ = type <{ float, float, float, float, i32, i32, i32, i64, [0 x i32] }>
%struct.If_Man_t_ = type { ptr, ptr, ptr, ptr, ptr, ptr, ptr, ptr, [5 x i32], i32, float, float, float, float, i32, float, i32, i32, [4 x ptr], ptr, i32, i32, i32, ptr, [3 x [32 x i32]], i32, i32, i32, ptr, ptr, ptr, ptr, ptr, ptr, ptr, i32, i32, i32, [16 x i32], i32, i32, i32, i32, ptr, ptr, ptr, ptr, ptr, i32, i32, [32 x i32], [32 x i32], i32, i32, i32, i32, ptr, [16 x ptr], [16 x ptr], [16 x ptr], [16 x ptr], [16 x ptr], [16 x ptr], [16 x ptr], ptr, ptr, ptr, ptr, [32 x i8], i32, i32, i32, [6 x i64], [2 x i32], [2 x i32], ptr, [15 x i32], ptr, ptr, ptr, [16 x i32], ptr, ptr, ptr, ptr, [2 x i32], [2 x i32], [2 x ptr], ptr }

; Function Attrs: nounwind uwtable
define i32 @If_CutCompareDelayOld(ptr noundef %0, ptr noundef %1, ptr noundef %2) #0 {
  %4 = alloca i32, align 4
  %5 = alloca ptr, align 8
  %6 = alloca ptr, align 8
  %7 = alloca ptr, align 8
  %8 = alloca ptr, align 8
  %9 = alloca ptr, align 8
  %10 = alloca i32, align 4
  store ptr %0, ptr %5, align 8, !tbaa !35
  store ptr %1, ptr %6, align 8, !tbaa !61
  store ptr %2, ptr %7, align 8, !tbaa !61
  call void @llvm.lifetime.start.p0(i64 8, ptr %8) #9
  %11 = load ptr, ptr %6, align 8, !tbaa !61
  %12 = load ptr, ptr %11, align 8, !tbaa !15
  store ptr %12, ptr %8, align 8, !tbaa !15
  call void @llvm.lifetime.start.p0(i64 8, ptr %9) #9
  %13 = load ptr, ptr %7, align 8, !tbaa !61
  %14 = load ptr, ptr %13, align 8, !tbaa !15
  store ptr %14, ptr %9, align 8, !tbaa !15
  %15 = load ptr, ptr %8, align 8, !tbaa !15
  %16 = getelementptr inbounds nuw %struct.If_Cut_t_, ptr %15, i32 0, i32 3
  %17 = load float, ptr %16, align 4, !tbaa !62
  %18 = load ptr, ptr %9, align 8, !tbaa !15
  %19 = getelementptr inbounds nuw %struct.If_Cut_t_, ptr %18, i32 0, i32 3
  %20 = load float, ptr %19, align 4, !tbaa !62
  %21 = load ptr, ptr %5, align 8, !tbaa !35
  %22 = getelementptr inbounds nuw %struct.If_Man_t_, ptr %21, i32 0, i32 10
  %23 = load float, ptr %22, align 8, !tbaa !63
  %24 = fsub float %20, %23
  %25 = fcmp olt float %17, %24
  br i1 %25, label %26, label %27

26:                                               ; preds = %3
  store i32 -1, ptr %4, align 4
  store i32 1, ptr %10, align 4
  br label %97

27:                                               ; preds = %3
  %28 = load ptr, ptr %8, align 8, !tbaa !15
  %29 = getelementptr inbounds nuw %struct.If_Cut_t_, ptr %28, i32 0, i32 3
  %30 = load float, ptr %29, align 4, !tbaa !62
  %31 = load ptr, ptr %9, align 8, !tbaa !15
  %32 = getelementptr inbounds nuw %struct.If_Cut_t_, ptr %31, i32 0, i32 3
  %33 = load float, ptr %32, align 4, !tbaa !62
  %34 = load ptr, ptr %5, align 8, !tbaa !35
  %35 = getelementptr inbounds nuw %struct.If_Man_t_, ptr %34, i32 0, i32 10
  %36 = load float, ptr %35, align 8, !tbaa !63
  %37 = fadd float %33, %36
  %38 = fcmp ogt float %30, %37
  br i1 %38, label %39, label %40

39:                                               ; preds = %27
  store i32 1, ptr %4, align 4
  store i32 1, ptr %10, align 4
  br label %97

40:                                               ; preds = %27
  %41 = load ptr, ptr %8, align 8, !tbaa !15
  %42 = getelementptr inbounds nuw %struct.If_Cut_t_, ptr %41, i32 0, i32 0
  %43 = load float, ptr %42, align 4, !tbaa !64
  %44 = load ptr, ptr %9, align 8, !tbaa !15
  %45 = getelementptr inbounds nuw %struct.If_Cut_t_, ptr %44, i32 0, i32 0
  %46 = load float, ptr %45, align 4, !tbaa !64
  %47 = load ptr, ptr %5, align 8, !tbaa !35
  %48 = getelementptr inbounds nuw %struct.If_Man_t_, ptr %47, i32 0, i32 10
  %49 = load float, ptr %48, align 8, !tbaa !63
  %50 = fsub float %46, %49
  %51 = fcmp olt float %43, %50
  br i1 %51, label %52, label %53

52:                                               ; preds = %40
  store i32 -1, ptr %4, align 4
  store i32 1, ptr %10, align 4
  br label %97

53:                                               ; preds = %40
  %54 = load ptr, ptr %8, align 8, !tbaa !15
  %55 = getelementptr inbounds nuw %struct.If_Cut_t_, ptr %54, i32 0, i32 0
  %56 = load float, ptr %55, align 4, !tbaa !64
  %57 = load ptr, ptr %9, align 8, !tbaa !15
  %58 = getelementptr inbounds nuw %struct.If_Cut_t_, ptr %57, i32 0, i32 0
  %59 = load float, ptr %58, align 4, !tbaa !64
  %60 = load ptr, ptr %5, align 8, !tbaa !35
  %61 = getelementptr inbounds nuw %struct.If_Man_t_, ptr %60, i32 0, i32 10
  %62 = load float, ptr %61, align 8, !tbaa !63
  %63 = fadd float %59, %62
  %64 = fcmp ogt float %56, %63
  br i1 %64, label %65, label %66

65:                                               ; preds = %53
  store i32 1, ptr %4, align 4
  store i32 1, ptr %10, align 4
  br label %97

66:                                               ; preds = %53
  %67 = load ptr, ptr %8, align 8, !tbaa !15
  %68 = getelementptr inbounds nuw %struct.If_Cut_t_, ptr %67, i32 0, i32 7
  %69 = load i64, ptr %68, align 4
  %70 = lshr i64 %69, 24
  %71 = and i64 %70, 255
  %72 = trunc i64 %71 to i32
  %73 = load ptr, ptr %9, align 8, !tbaa !15
  %74 = getelementptr inbounds nuw %struct.If_Cut_t_, ptr %73, i32 0, i32 7
  %75 = load i64, ptr %74, align 4
  %76 = lshr i64 %75, 24
  %77 = and i64 %76, 255
  %78 = trunc i64 %77 to i32
  %79 = icmp slt i32 %72, %78
  br i1 %79, label %80, label %81

80:                                               ; preds = %66
  store i32 -1, ptr %4, align 4
  store i32 1, ptr %10, align 4
  br label %97

81:                                               ; preds = %66
  %82 = load ptr, ptr %8, align 8, !tbaa !15
  %83 = getelementptr inbounds nuw %struct.If_Cut_t_, ptr %82, i32 0, i32 7
  %84 = load i64, ptr %83, align 4
  %85 = lshr i64 %84, 24
  %86 = and i64 %85, 255
  %87 = trunc i64 %86 to i32
  %88 = load ptr, ptr %9, align 8, !tbaa !15
  %89 = getelementptr inbounds nuw %struct.If_Cut_t_, ptr %88, i32 0, i32 7
  %90 = load i64, ptr %89, align 4
  %91 = lshr i64 %90, 24
  %92 = and i64 %91, 255
  %93 = trunc i64 %92 to i32
  %94 = icmp sgt i32 %87, %93
  br i1 %94, label %95, label %96

95:                                               ; preds = %81
  store i32 1, ptr %4, align 4
  store i32 1, ptr %10, align 4
  br label %97

96:                                               ; preds = %81
  store i32 0, ptr %4, align 4
  store i32 1, ptr %10, align 4
  br label %97

97:                                               ; preds = %96, %95, %80, %65, %52, %39, %26
  call void @llvm.lifetime.end.p0(i64 8, ptr %9) #9
  call void @llvm.lifetime.end.p0(i64 8, ptr %8) #9
  %98 = load i32, ptr %4, align 4
  ret i32 %98
}