; Function Attrs: mustprogress nofree norecurse nosync nounwind willreturn memory(read, inaccessiblemem: none) uwtable
define range(i32 -1, 2) i32 @If_CutCompareDelayOld(ptr noundef readonly captures(none) %0, ptr noundef readonly captures(none) %1, ptr noundef readonly captures(none) %2) local_unnamed_addr #4 {
  %4 = load ptr, ptr %1, align 8, !tbaa !12
  %5 = load ptr, ptr %2, align 8, !tbaa !12
  %6 = getelementptr inbounds nuw i8, ptr %4, i64 12
  %7 = load float, ptr %6, align 4, !tbaa !54
  %8 = getelementptr inbounds nuw i8, ptr %5, i64 12
  %9 = load float, ptr %8, align 4, !tbaa !54
  %10 = getelementptr inbounds nuw i8, ptr %0, i64 88
  %11 = load float, ptr %10, align 8, !tbaa !55
  %12 = fsub float %9, %11
  %13 = fcmp olt float %7, %12
  br i1 %13, label %37, label %14

14:                                               ; preds = %3
  %15 = fadd float %9, %11
  %16 = fcmp ogt float %7, %15
  br i1 %16, label %37, label %17

17:                                               ; preds = %14
  %18 = load float, ptr %4, align 4, !tbaa !56
  %19 = load float, ptr %5, align 4, !tbaa !56
  %20 = fsub float %19, %11
  %21 = fcmp olt float %18, %20
  br i1 %21, label %37, label %22

22:                                               ; preds = %17
  %23 = fadd float %11, %19
  %24 = fcmp ogt float %18, %23
  br i1 %24, label %37, label %25

25:                                               ; preds = %22
  %26 = getelementptr inbounds nuw i8, ptr %4, i64 28
  %27 = load i64, ptr %26, align 4
  %28 = trunc i64 %27 to i32
  %29 = lshr i32 %28, 24
  %30 = getelementptr inbounds nuw i8, ptr %5, i64 28
  %31 = load i64, ptr %30, align 4
  %32 = trunc i64 %31 to i32
  %33 = lshr i32 %32, 24
  %34 = icmp samesign ult i32 %29, %33
  br i1 %34, label %37, label %35

35:                                               ; preds = %25
  %36 = icmp samesign ugt i32 %29, %33
  %. = zext i1 %36 to i32
  br label %37

37:                                               ; preds = %35, %25, %22, %17, %14, %3
  %.0 = phi i32 [ -1, %3 ], [ 1, %14 ], [ -1, %17 ], [ 1, %22 ], [ -1, %25 ], [ %., %35 ]
  ret i32 %.0
}